target datalayout = "e-m:e-p270:32:32-p271:32:32-p272:64:64-i64:64-i128:128-f80:128-n8:16:32:64-S128"
target triple = "x86_64-pc-linux-gnu"

%struct.ThreadNode = type { ptr, i16, i32, ptr, i32, i32, %struct.StepRequest, %struct.InvokeRequest, ptr, %struct.CoLocatedEventInfo_, ptr, ptr, i64, ptr }
%struct.StepRequest = type { i32, i32, i8, i8, i8, i32, i32, ptr, ptr, i32, ptr, ptr, ptr, ptr }
%struct.InvokeRequest = type { i8, i8, i8, i8, i32, i8, i8, ptr, ptr, ptr, ptr, i32, ptr, %union.jvalue, ptr }
%union.jvalue = type { i64 }
%struct.CoLocatedEventInfo_ = type { i32, ptr, ptr, i64 }

@threadLock = internal global ptr null, align 8
@stderr = external global ptr, align 8
@.str.1 = private unnamed_addr constant [17 x i8] c"JDWP exit error \00", align 1
@.str.2 = private unnamed_addr constant [2 x i8] c"\0A\00", align 1
@.str.3 = private unnamed_addr constant [19 x i8] c"%s(%d): %s [%s:%d]\00", align 1
@.str.5 = private unnamed_addr constant [56 x i8] c"src/jdk.jdwp.agent/share/native/libjdwp/threadControl.c\00", align 1
@.str.66 = private unnamed_addr constant [22 x i8] c"entry in thread table\00", align 1

; Function Attrs: nounwind uwtable
define internal void @setPopFrameProceed(ptr noundef %0, i8 noundef zeroext %1) #0 {
  %3 = alloca ptr, align 8
  %4 = alloca i8, align 1
  %5 = alloca ptr, align 8
  store ptr %0, ptr %3, align 8
  store i8 %1, ptr %4, align 1
  %6 = load ptr, ptr @threadLock, align 8
  call void @debugMonitorEnter(ptr noundef %6)
  %7 = load ptr, ptr %3, align 8
  %8 = call ptr @findThread(ptr noundef null, ptr noundef %7)
  store ptr %8, ptr %5, align 8
  %9 = load ptr, ptr %5, align 8
  %10 = icmp eq ptr %9, null
  br i1 %10, label %11, label %14

11:                                               ; preds = %2
  %12 = load ptr, ptr @stderr, align 8
  %13 = call ptr @jvmtiErrorText(i32 noundef 201)
  call void (ptr, ptr, ptr, ptr, ...) @print_message(ptr noundef %12, ptr noundef @.str.1, ptr noundef @.str.2, ptr noundef @.str.3, ptr noundef %13, i32 noundef 201, ptr noundef @.str.66, ptr noundef @.str.5, i32 noundef 1841)
  call void @debugInit_exit(i32 noundef 201, ptr noundef @.str.66)
  br label %25

14:                                               ; preds = %2
  %15 = load i8, ptr %4, align 1
  %16 = zext i8 %15 to i32
  %17 = load ptr, ptr %5, align 8
  %18 = getelementptr inbounds %struct.ThreadNode, ptr %17, i32 0, i32 1
  %19 = trunc i32 %16 to i16
  %20 = load i16, ptr %18, align 8
  %21 = and i16 %19, 1
  %22 = shl i16 %21, 7
  %23 = and i16 %20, -129
  %24 = or i16 %23, %22
  store i16 %24, ptr %18, align 8
  br label %25

25:                                               ; preds = %14, %11
  %26 = load ptr, ptr @threadLock, align 8
  call void @debugMonitorExit(ptr noundef %26)
  ret void
}