; Function Attrs: nounwind uwtable
define internal fastcc void @setPopFrameProceed(ptr noundef %0, i8 noundef zeroext %1) unnamed_addr #0 {
  %3 = load ptr, ptr @threadLock, align 8
  tail call void @debugMonitorEnter(ptr noundef %3) #6
  %4 = tail call fastcc ptr @findThread(ptr noundef null, ptr noundef %0)
  %5 = icmp eq ptr %4, null
  br i1 %5, label %6, label %9

6:                                                ; preds = %2
  %7 = load ptr, ptr @stderr, align 8
  %8 = tail call ptr @jvmtiErrorText(i32 noundef 201) #6
  tail call void (ptr, ptr, ptr, ptr, ...) @print_message(ptr noundef %7, ptr noundef nonnull @.str.1, ptr noundef nonnull @.str.2, ptr noundef nonnull @.str.3, ptr noundef %8, i32 noundef 201, ptr noundef nonnull @.str.66, ptr noundef nonnull @.str.5, i32 noundef 1841) #6
  tail call void @debugInit_exit(i32 noundef 201, ptr noundef nonnull @.str.66) #6
  br label %16

9:                                                ; preds = %2
  %10 = getelementptr inbounds i8, ptr %4, i64 8
  %11 = load i16, ptr %10, align 8
  %12 = shl i8 %1, 7
  %13 = zext i8 %12 to i16
  %14 = and i16 %11, -129
  %15 = or disjoint i16 %14, %13
  store i16 %15, ptr %10, align 8
  br label %16

16:                                               ; preds = %9, %6
  %17 = load ptr, ptr @threadLock, align 8
  tail call void @debugMonitorExit(ptr noundef %17) #6
  ret void
}